target datalayout = "e-m:e-p270:32:32-p271:32:32-p272:64:64-i64:64-i128:128-f80:128-n8:16:32:64-S128"
target triple = "x86_64-pc-linux-gnu"

%struct.AVFilterLink = type { ptr, ptr, ptr, ptr, i32, i32, i32, i32, %struct.AVRational, i32, i32, i32, %struct.AVChannelLayout, %struct.AVRational, ptr, i32, %struct.AVFilterFormatsConfig, %struct.AVFilterFormatsConfig }
%struct.AVChannelLayout = type { i32, i32, %union.anon.1, ptr }
%union.anon.1 = type { i64 }
%struct.AVRational = type { i32, i32 }
%struct.AVFilterFormatsConfig = type { ptr, ptr, ptr, ptr, ptr }
%struct.AVFilterContext = type { ptr, ptr, ptr, ptr, ptr, i32, ptr, ptr, i32, ptr, ptr, i32, i32, ptr, ptr, ptr, ptr, i32, ptr, i32, i32 }
%struct.TransContext = type { ptr, i32, i32, i32, [4 x i32], i32, i32, [4 x %struct.TransVtable] }
%struct.TransVtable = type { ptr, ptr }
%struct.ThreadData = type { ptr, ptr }
%struct.AVFrame = type { [8 x ptr], [8 x i32], ptr, i32, i32, i32, i32, i32, %struct.AVRational, i64, i64, %struct.AVRational, i32, ptr, i32, i32, [8 x ptr], ptr, i32, ptr, i32, i32, i32, i32, i32, i32, i32, i64, ptr, i32, ptr, ptr, i64, i64, i64, i64, ptr, %struct.AVChannelLayout, i64 }

; Function Attrs: nounwind uwtable
define internal i32 @filter_frame(ptr noundef %0, ptr noundef %1) #0 {
  %3 = alloca i32, align 4
  %4 = alloca ptr, align 8
  %5 = alloca ptr, align 8
  %6 = alloca i32, align 4
  %7 = alloca ptr, align 8
  %8 = alloca ptr, align 8
  %9 = alloca ptr, align 8
  %10 = alloca %struct.ThreadData, align 8
  %11 = alloca ptr, align 8
  %12 = alloca i32, align 4
  store ptr %0, ptr %4, align 8, !tbaa !26
  store ptr %1, ptr %5, align 8, !tbaa !49
  call void @llvm.lifetime.start.p0(i64 4, ptr %6) #9
  store i32 0, ptr %6, align 4, !tbaa !14
  call void @llvm.lifetime.start.p0(i64 8, ptr %7) #9
  %13 = load ptr, ptr %4, align 8, !tbaa !26
  %14 = getelementptr inbounds nuw %struct.AVFilterLink, ptr %13, i32 0, i32 2
  %15 = load ptr, ptr %14, align 8, !tbaa !28
  store ptr %15, ptr %7, align 8, !tbaa !4
  call void @llvm.lifetime.start.p0(i64 8, ptr %8) #9
  %16 = load ptr, ptr %7, align 8, !tbaa !4
  %17 = getelementptr inbounds nuw %struct.AVFilterContext, ptr %16, i32 0, i32 9
  %18 = load ptr, ptr %17, align 8, !tbaa !36
  store ptr %18, ptr %8, align 8, !tbaa !45
  call void @llvm.lifetime.start.p0(i64 8, ptr %9) #9
  %19 = load ptr, ptr %7, align 8, !tbaa !4
  %20 = getelementptr inbounds nuw %struct.AVFilterContext, ptr %19, i32 0, i32 7
  %21 = load ptr, ptr %20, align 8, !tbaa !51
  %22 = getelementptr inbounds ptr, ptr %21, i64 0
  %23 = load ptr, ptr %22, align 8, !tbaa !26
  store ptr %23, ptr %9, align 8, !tbaa !26
  call void @llvm.lifetime.start.p0(i64 16, ptr %10) #9
  call void @llvm.lifetime.start.p0(i64 8, ptr %11) #9
  %24 = load ptr, ptr %8, align 8, !tbaa !45
  %25 = getelementptr inbounds nuw %struct.TransContext, ptr %24, i32 0, i32 5
  %26 = load i32, ptr %25, align 4, !tbaa !47
  %27 = icmp ne i32 %26, 0
  br i1 %27, label %28, label %32

28:                                               ; preds = %2
  %29 = load ptr, ptr %9, align 8, !tbaa !26
  %30 = load ptr, ptr %5, align 8, !tbaa !49
  %31 = call i32 @ff_filter_frame(ptr noundef %29, ptr noundef %30)
  store i32 %31, ptr %3, align 4
  store i32 1, ptr %12, align 4
  br label %104

32:                                               ; preds = %2
  %33 = load ptr, ptr %9, align 8, !tbaa !26
  %34 = load ptr, ptr %9, align 8, !tbaa !26
  %35 = getelementptr inbounds nuw %struct.AVFilterLink, ptr %34, i32 0, i32 6
  %36 = load i32, ptr %35, align 8, !tbaa !52
  %37 = load ptr, ptr %9, align 8, !tbaa !26
  %38 = getelementptr inbounds nuw %struct.AVFilterLink, ptr %37, i32 0, i32 7
  %39 = load i32, ptr %38, align 4, !tbaa !53
  %40 = call ptr @ff_get_video_buffer(ptr noundef %33, i32 noundef %36, i32 noundef %39)
  store ptr %40, ptr %11, align 8, !tbaa !49
  %41 = load ptr, ptr %11, align 8, !tbaa !49
  %42 = icmp ne ptr %41, null
  br i1 %42, label %44, label %43

43:                                               ; preds = %32
  store i32 -12, ptr %6, align 4, !tbaa !14
  br label %102

44:                                               ; preds = %32
  %45 = load ptr, ptr %11, align 8, !tbaa !49
  %46 = load ptr, ptr %5, align 8, !tbaa !49
  %47 = call i32 @av_frame_copy_props(ptr noundef %45, ptr noundef %46)
  store i32 %47, ptr %6, align 4, !tbaa !14
  %48 = load i32, ptr %6, align 4, !tbaa !14
  %49 = icmp slt i32 %48, 0
  br i1 %49, label %50, label %51

50:                                               ; preds = %44
  br label %102

51:                                               ; preds = %44
  %52 = load ptr, ptr %5, align 8, !tbaa !49
  %53 = getelementptr inbounds nuw %struct.AVFrame, ptr %52, i32 0, i32 8
  %54 = getelementptr inbounds nuw %struct.AVRational, ptr %53, i32 0, i32 0
  %55 = load i32, ptr %54, align 4, !tbaa !54
  %56 = icmp eq i32 %55, 0
  br i1 %56, label %57, label %62

57:                                               ; preds = %51
  %58 = load ptr, ptr %11, align 8, !tbaa !49
  %59 = getelementptr inbounds nuw %struct.AVFrame, ptr %58, i32 0, i32 8
  %60 = load ptr, ptr %5, align 8, !tbaa !49
  %61 = getelementptr inbounds nuw %struct.AVFrame, ptr %60, i32 0, i32 8
  call void @llvm.memcpy.p0.p0.i64(ptr align 4 %59, ptr align 4 %61, i64 8, i1 false), !tbaa.struct !59
  br label %77

62:                                               ; preds = %51
  %63 = load ptr, ptr %5, align 8, !tbaa !49
  %64 = getelementptr inbounds nuw %struct.AVFrame, ptr %63, i32 0, i32 8
  %65 = getelementptr inbounds nuw %struct.AVRational, ptr %64, i32 0, i32 1
  %66 = load i32, ptr %65, align 4, !tbaa !60
  %67 = load ptr, ptr %11, align 8, !tbaa !49
  %68 = getelementptr inbounds nuw %struct.AVFrame, ptr %67, i32 0, i32 8
  %69 = getelementptr inbounds nuw %struct.AVRational, ptr %68, i32 0, i32 0
  store i32 %66, ptr %69, align 4, !tbaa !54
  %70 = load ptr, ptr %5, align 8, !tbaa !49
  %71 = getelementptr inbounds nuw %struct.AVFrame, ptr %70, i32 0, i32 8
  %72 = getelementptr inbounds nuw %struct.AVRational, ptr %71, i32 0, i32 0
  %73 = load i32, ptr %72, align 4, !tbaa !54
  %74 = load ptr, ptr %11, align 8, !tbaa !49
  %75 = getelementptr inbounds nuw %struct.AVFrame, ptr %74, i32 0, i32 8
  %76 = getelementptr inbounds nuw %struct.AVRational, ptr %75, i32 0, i32 1
  store i32 %73, ptr %76, align 4, !tbaa !60
  br label %77

77:                                               ; preds = %62, %57
  %78 = load ptr, ptr %5, align 8, !tbaa !49
  %79 = getelementptr inbounds nuw %struct.ThreadData, ptr %10, i32 0, i32 0
  store ptr %78, ptr %79, align 8, !tbaa !61
  %80 = load ptr, ptr %11, align 8, !tbaa !49
  %81 = getelementptr inbounds nuw %struct.ThreadData, ptr %10, i32 0, i32 1
  store ptr %80, ptr %81, align 8, !tbaa !63
  %82 = load ptr, ptr %7, align 8, !tbaa !4
  %83 = load ptr, ptr %9, align 8, !tbaa !26
  %84 = getelementptr inbounds nuw %struct.AVFilterLink, ptr %83, i32 0, i32 7
  %85 = load i32, ptr %84, align 4, !tbaa !53
  %86 = load ptr, ptr %7, align 8, !tbaa !4
  %87 = call i32 @ff_filter_get_nb_threads(ptr noundef %86) #10
  %88 = icmp sgt i32 %85, %87
  br i1 %88, label %89, label %92

89:                                               ; preds = %77
  %90 = load ptr, ptr %7, align 8, !tbaa !4
  %91 = call i32 @ff_filter_get_nb_threads(ptr noundef %90) #10
  br label %96

92:                                               ; preds = %77
  %93 = load ptr, ptr %9, align 8, !tbaa !26
  %94 = getelementptr inbounds nuw %struct.AVFilterLink, ptr %93, i32 0, i32 7
  %95 = load i32, ptr %94, align 4, !tbaa !53
  br label %96

96:                                               ; preds = %92, %89
  %97 = phi i32 [ %91, %89 ], [ %95, %92 ]
  %98 = call i32 @ff_filter_execute(ptr noundef %82, ptr noundef @filter_slice, ptr noundef %10, ptr noundef null, i32 noundef %97)
  call void @av_frame_free(ptr noundef %5)
  %99 = load ptr, ptr %9, align 8, !tbaa !26
  %100 = load ptr, ptr %11, align 8, !tbaa !49
  %101 = call i32 @ff_filter_frame(ptr noundef %99, ptr noundef %100)
  store i32 %101, ptr %3, align 4
  store i32 1, ptr %12, align 4
  br label %104

102:                                              ; preds = %50, %43
  call void @av_frame_free(ptr noundef %5)
  call void @av_frame_free(ptr noundef %11)
  %103 = load i32, ptr %6, align 4, !tbaa !14
  store i32 %103, ptr %3, align 4
  store i32 1, ptr %12, align 4
  br label %104

104:                                              ; preds = %102, %96, %28
  call void @llvm.lifetime.end.p0(i64 8, ptr %11) #9
  call void @llvm.lifetime.end.p0(i64 16, ptr %10) #9
  call void @llvm.lifetime.end.p0(i64 8, ptr %9) #9
  call void @llvm.lifetime.end.p0(i64 8, ptr %8) #9
  call void @llvm.lifetime.end.p0(i64 8, ptr %7) #9
  call void @llvm.lifetime.end.p0(i64 4, ptr %6) #9
  %105 = load i32, ptr %3, align 4
  ret i32 %105
}