; Function Attrs: nounwind uwtable
define internal i32 @filter_frame(ptr noundef readonly captures(none) %0, ptr noundef %1) #0 {
  %3 = alloca ptr, align 8
  %4 = alloca %struct.ThreadData, align 8
  %5 = alloca ptr, align 8
  store ptr %1, ptr %3, align 8, !tbaa !39
  %6 = getelementptr inbounds nuw i8, ptr %0, i64 16
  %7 = load ptr, ptr %6, align 8, !tbaa !17
  %8 = getelementptr inbounds nuw i8, ptr %7, i64 72
  %9 = load ptr, ptr %8, align 8, !tbaa !28
  %10 = getelementptr inbounds nuw i8, ptr %7, i64 56
  %11 = load ptr, ptr %10, align 8, !tbaa !41
  %12 = load ptr, ptr %11, align 8, !tbaa !42
  call void @llvm.lifetime.start.p0(i64 16, ptr nonnull %4) #9
  call void @llvm.lifetime.start.p0(i64 8, ptr nonnull %5) #9
  %13 = getelementptr inbounds nuw i8, ptr %9, i64 36
  %14 = load i32, ptr %13, align 4, !tbaa !37
  %.not = icmp eq i32 %14, 0
  br i1 %.not, label %17, label %15

15:                                               ; preds = %2
  %16 = tail call i32 @ff_filter_frame(ptr noundef %12, ptr noundef %1) #9
  br label %46

17:                                               ; preds = %2
  %18 = getelementptr inbounds nuw i8, ptr %12, i64 40
  %19 = load i32, ptr %18, align 8, !tbaa !44
  %20 = getelementptr inbounds nuw i8, ptr %12, i64 44
  %21 = load i32, ptr %20, align 4, !tbaa !45
  %22 = tail call ptr @ff_get_video_buffer(ptr noundef %12, i32 noundef %19, i32 noundef %21) #9
  store ptr %22, ptr %5, align 8, !tbaa !39
  %.not21 = icmp eq ptr %22, null
  br i1 %.not21, label %45, label %23

23:                                               ; preds = %17
  %24 = tail call i32 @av_frame_copy_props(ptr noundef nonnull %22, ptr noundef %1) #9
  %25 = icmp slt i32 %24, 0
  br i1 %25, label %45, label %26

26:                                               ; preds = %23
  %27 = getelementptr inbounds nuw i8, ptr %1, i64 124
  %28 = load i32, ptr %27, align 4, !tbaa !46
  %29 = icmp eq i32 %28, 0
  br i1 %29, label %30, label %33

30:                                               ; preds = %26
  %31 = getelementptr inbounds nuw i8, ptr %22, i64 124
  %32 = load i64, ptr %27, align 4
  store i64 %32, ptr %31, align 4
  br label %39

33:                                               ; preds = %26
  %34 = getelementptr inbounds nuw i8, ptr %1, i64 128
  %35 = load i32, ptr %34, align 4, !tbaa !51
  %36 = getelementptr inbounds nuw i8, ptr %22, i64 124
  store i32 %35, ptr %36, align 4, !tbaa !46
  %37 = load i32, ptr %27, align 4, !tbaa !46
  %38 = getelementptr inbounds nuw i8, ptr %22, i64 128
  store i32 %37, ptr %38, align 4, !tbaa !51
  br label %39

39:                                               ; preds = %33, %30
  store ptr %1, ptr %4, align 8, !tbaa !52
  %40 = getelementptr inbounds nuw i8, ptr %4, i64 8
  store ptr %22, ptr %40, align 8, !tbaa !54
  %41 = load i32, ptr %20, align 4, !tbaa !45
  %42 = tail call i32 @ff_filter_get_nb_threads(ptr noundef nonnull %7) #10
  %. = tail call i32 @llvm.smin.i32(i32 %41, i32 %42)
  %43 = call i32 @ff_filter_execute(ptr noundef nonnull %7, ptr noundef nonnull @filter_slice, ptr noundef nonnull %4, ptr noundef null, i32 noundef %.) #9
  call void @av_frame_free(ptr noundef nonnull %3) #9
  %44 = call i32 @ff_filter_frame(ptr noundef nonnull %12, ptr noundef nonnull %22) #9
  br label %46

45:                                               ; preds = %17, %23
  %.016 = phi i32 [ %24, %23 ], [ -12, %17 ]
  call void @av_frame_free(ptr noundef nonnull %3) #9
  call void @av_frame_free(ptr noundef nonnull %5) #9
  br label %46

46:                                               ; preds = %45, %39, %15
  %.0 = phi i32 [ %16, %15 ], [ %.016, %45 ], [ %44, %39 ]
  call void @llvm.lifetime.end.p0(i64 8, ptr nonnull %5) #9
  call void @llvm.lifetime.end.p0(i64 16, ptr nonnull %4) #9
  ret i32 %.0
}